target datalayout = "e-m:e-p270:32:32-p271:32:32-p272:64:64-i64:64-i128:128-f80:128-n8:16:32:64-S128"
target triple = "x86_64-pc-linux-gnu"

@.str.16 = private unnamed_addr constant [4 x i8] c":/?\00", align 1
@.str.330 = private unnamed_addr constant [4 x i8] c"://\00", align 1
@mailto = internal constant [8 x i8] c"mailto:\00", align 1
@.str.331 = private unnamed_addr constant [3 x i8] c": \00", align 1
@.str.332 = private unnamed_addr constant [43 x i8] c"Phishcheck: Real URL without protocol: %s\0A\00", align 1

; Function Attrs: nounwind uwtable
define internal i32 @tld_hash(ptr noundef %0, i32 noundef %1) #0 {
  %3 = alloca ptr, align 8
  %4 = alloca i32, align 4
  %5 = alloca i32, align 4
  store ptr %0, ptr %3, align 8
  store i32 %1, ptr %4, align 4
  %6 = load i32, ptr %4, align 4
  store i32 %6, ptr %5, align 4
  %7 = load i32, ptr %5, align 4
  switch i32 %7, label %8 [
    i32 5, label %18
    i32 4, label %18
    i32 3, label %18
    i32 2, label %18
    i32 1, label %28
  ]

8:                                                ; preds = %2
  %9 = load ptr, ptr %3, align 8
  %10 = getelementptr inbounds i8, ptr %9, i64 5
  %11 = load i8, ptr %10, align 1
  %12 = zext i8 %11 to i64
  %13 = getelementptr inbounds [281 x i16], ptr @tld_hash.asso_values, i64 0, i64 %12
  %14 = load i16, ptr %13, align 2
  %15 = zext i16 %14 to i32
  %16 = load i32, ptr %5, align 4
  %17 = add nsw i32 %16, %15
  store i32 %17, ptr %5, align 4
  br label %18

18:                                               ; preds = %8, %2, %2, %2, %2
  %19 = load ptr, ptr %3, align 8
  %20 = getelementptr inbounds i8, ptr %19, i64 1
  %21 = load i8, ptr %20, align 1
  %22 = zext i8 %21 to i64
  %23 = getelementptr inbounds [281 x i16], ptr @tld_hash.asso_values, i64 0, i64 %22
  %24 = load i16, ptr %23, align 2
  %25 = zext i16 %24 to i32
  %26 = load i32, ptr %5, align 4
  %27 = add nsw i32 %26, %25
  store i32 %27, ptr %5, align 4
  br label %28

28:                                               ; preds = %18, %2
  %29 = load ptr, ptr %3, align 8
  %30 = getelementptr inbounds i8, ptr %29, i64 0
  %31 = load i8, ptr %30, align 1
  %32 = zext i8 %31 to i32
  %33 = add nsw i32 %32, 25
  %34 = sext i32 %33 to i64
  %35 = getelementptr inbounds [281 x i16], ptr @tld_hash.asso_values, i64 0, i64 %34
  %36 = load i16, ptr %35, align 2
  %37 = zext i16 %36 to i32
  %38 = load i32, ptr %5, align 4
  %39 = add nsw i32 %38, %37
  store i32 %39, ptr %5, align 4
  br label %40

40:                                               ; preds = %28
  %41 = load i32, ptr %5, align 4
  ret i32 %41
}

; Function Attrs: nounwind uwtable
define internal ptr @in_tld_set(ptr noundef %0, i32 noundef %1) #0 {
  %3 = alloca ptr, align 8
  %4 = alloca ptr, align 8
  %5 = alloca i32, align 4
  %6 = alloca i32, align 4
  %7 = alloca ptr, align 8
  store ptr %0, ptr %4, align 8
  store i32 %1, ptr %5, align 4
  %8 = load i32, ptr %5, align 4
  %9 = icmp ule i32 %8, 18
  br i1 %9, label %10, label %57

10:                                               ; preds = %2
  %11 = load i32, ptr %5, align 4
  %12 = icmp uge i32 %11, 2
  br i1 %12, label %13, label %57

13:                                               ; preds = %10
  %14 = load ptr, ptr %4, align 8
  %15 = load i32, ptr %5, align 4
  %16 = call i32 @tld_hash(ptr noundef %14, i32 noundef %15)
  store i32 %16, ptr %6, align 4
  %17 = load i32, ptr %6, align 4
  %18 = icmp sle i32 %17, 987
  br i1 %18, label %19, label %56

19:                                               ; preds = %13
  %20 = load i32, ptr %6, align 4
  %21 = icmp sge i32 %20, 0
  br i1 %21, label %22, label %56

22:                                               ; preds = %19
  %23 = load i32, ptr %5, align 4
  %24 = load i32, ptr %6, align 4
  %25 = sext i32 %24 to i64
  %26 = getelementptr inbounds [988 x i8], ptr @in_tld_set.lengthtable, i64 0, i64 %25
  %27 = load i8, ptr %26, align 1
  %28 = zext i8 %27 to i32
  %29 = icmp eq i32 %23, %28
  br i1 %29, label %30, label %55

30:                                               ; preds = %22
  %31 = load i32, ptr %6, align 4
  %32 = sext i32 %31 to i64
  %33 = getelementptr inbounds [988 x ptr], ptr @in_tld_set.wordlist, i64 0, i64 %32
  %34 = load ptr, ptr %33, align 8
  store ptr %34, ptr %7, align 8
  %35 = load ptr, ptr %4, align 8
  %36 = load i8, ptr %35, align 1
  %37 = sext i8 %36 to i32
  %38 = load ptr, ptr %7, align 8
  %39 = load i8, ptr %38, align 1
  %40 = sext i8 %39 to i32
  %41 = icmp eq i32 %37, %40
  br i1 %41, label %42, label %54

42:                                               ; preds = %30
  %43 = load ptr, ptr %4, align 8
  %44 = getelementptr inbounds i8, ptr %43, i64 1
  %45 = load ptr, ptr %7, align 8
  %46 = getelementptr inbounds i8, ptr %45, i64 1
  %47 = load i32, ptr %5, align 4
  %48 = sub i32 %47, 1
  %49 = zext i32 %48 to i64
  %50 = call i32 @memcmp(ptr noundef %44, ptr noundef %46, i64 noundef %49) #8
  %51 = icmp ne i32 %50, 0
  br i1 %51, label %54, label %52

52:                                               ; preds = %42
  %53 = load ptr, ptr %7, align 8
  store ptr %53, ptr %3, align 8
  br label %58

54:                                               ; preds = %42, %30
  br label %55

55:                                               ; preds = %54, %22
  br label %56

56:                                               ; preds = %55, %19, %13
  br label %57

57:                                               ; preds = %56, %10, %2
  store ptr null, ptr %3, align 8
  br label %58

58:                                               ; preds = %57, %52
  %59 = load ptr, ptr %3, align 8
  ret ptr %59
}

; Function Attrs: nounwind uwtable
define internal i32 @get_host(ptr noundef %0, i32 noundef %1, ptr noundef %2, ptr noundef %3, ptr noundef %4) #0 {
  %6 = alloca i32, align 4
  %7 = alloca ptr, align 8
  %8 = alloca i32, align 4
  %9 = alloca ptr, align 8
  %10 = alloca ptr, align 8
  %11 = alloca ptr, align 8
  %12 = alloca i32, align 4
  %13 = alloca i32, align 4
  %14 = alloca ptr, align 8
  %15 = alloca ptr, align 8
  %16 = alloca ptr, align 8
  %17 = alloca ptr, align 8
  store ptr %0, ptr %7, align 8
  store i32 %1, ptr %8, align 4
  store ptr %2, ptr %9, align 8
  store ptr %3, ptr %10, align 8
  store ptr %4, ptr %11, align 8
  store i32 0, ptr %13, align 4
  store ptr null, ptr %15, align 8
  %18 = load ptr, ptr %7, align 8
  %19 = icmp ne ptr %18, null
  br i1 %19, label %23, label %20

20:                                               ; preds = %5
  %21 = load ptr, ptr %11, align 8
  store ptr null, ptr %21, align 8
  %22 = load ptr, ptr %10, align 8
  store ptr null, ptr %22, align 8
  store i32 0, ptr %6, align 4
  br label %166

23:                                               ; preds = %5
  %24 = load ptr, ptr %7, align 8
  %25 = call ptr @strstr(ptr noundef %24, ptr noundef @.str.330) #8
  store ptr %25, ptr %14, align 8
  %26 = load ptr, ptr %14, align 8
  %27 = icmp ne ptr %26, null
  br i1 %27, label %70, label %28

28:                                               ; preds = %23
  %29 = load ptr, ptr %7, align 8
  %30 = call i32 @strncmp(ptr noundef %29, ptr noundef @mailto, i64 noundef 7) #8
  %31 = icmp ne i32 %30, 0
  br i1 %31, label %35, label %32

32:                                               ; preds = %28
  %33 = load ptr, ptr %7, align 8
  %34 = getelementptr inbounds i8, ptr %33, i64 7
  store ptr %34, ptr %14, align 8
  store i32 1, ptr %13, align 4
  br label %69

35:                                               ; preds = %28
  %36 = load i32, ptr %8, align 4
  %37 = icmp ne i32 %36, 0
  br i1 %37, label %60, label %38

38:                                               ; preds = %35
  %39 = load ptr, ptr %9, align 8
  %40 = load i32, ptr %39, align 4
  %41 = and i32 %40, 4
  %42 = icmp ne i32 %41, 0
  br i1 %42, label %43, label %60

43:                                               ; preds = %38
  %44 = load ptr, ptr %7, align 8
  %45 = load ptr, ptr %7, align 8
  %46 = call i64 @strlen(ptr noundef %45) #8
  %47 = getelementptr inbounds i8, ptr %44, i64 %46
  %48 = getelementptr inbounds i8, ptr %47, i64 1
  store ptr %48, ptr %15, align 8
  %49 = load ptr, ptr %7, align 8
  %50 = load ptr, ptr %7, align 8
  %51 = call i64 @strcspn(ptr noundef %50, ptr noundef @.str.331) #8
  %52 = getelementptr inbounds i8, ptr %49, i64 %51
  %53 = getelementptr inbounds i8, ptr %52, i64 1
  store ptr %53, ptr %14, align 8
  %54 = load ptr, ptr %14, align 8
  %55 = load ptr, ptr %15, align 8
  %56 = icmp eq ptr %54, %55
  br i1 %56, label %57, label %59

57:                                               ; preds = %43
  %58 = load ptr, ptr %7, align 8
  store ptr %58, ptr %14, align 8
  br label %59

59:                                               ; preds = %57, %43
  store i32 1, ptr %13, align 4
  br label %68

60:                                               ; preds = %38, %35
  %61 = load ptr, ptr %7, align 8
  store ptr %61, ptr %14, align 8
  %62 = load i32, ptr %8, align 4
  %63 = icmp ne i32 %62, 0
  br i1 %63, label %64, label %66

64:                                               ; preds = %60
  %65 = load ptr, ptr %7, align 8
  call void (ptr, ...) @cli_dbgmsg(ptr noundef @.str.332, ptr noundef %65)
  br label %67

66:                                               ; preds = %60
  store i32 2, ptr %13, align 4
  br label %67

67:                                               ; preds = %66, %64
  br label %68

68:                                               ; preds = %67, %59
  br label %69

69:                                               ; preds = %68, %32
  br label %73

70:                                               ; preds = %23
  %71 = load ptr, ptr %14, align 8
  %72 = getelementptr inbounds i8, ptr %71, i64 3
  store ptr %72, ptr %14, align 8
  br label %73

73:                                               ; preds = %70, %69
  %74 = load i32, ptr %13, align 4
  %75 = icmp ne i32 %74, 0
  br i1 %75, label %76, label %79

76:                                               ; preds = %73
  %77 = load i32, ptr %8, align 4
  %78 = icmp ne i32 %77, 0
  br i1 %78, label %134, label %79

79:                                               ; preds = %76, %73
  br label %80

80:                                               ; preds = %130, %79
  %81 = load ptr, ptr %14, align 8
  %82 = load ptr, ptr %14, align 8
  %83 = call i64 @strcspn(ptr noundef %82, ptr noundef @.str.16) #8
  %84 = getelementptr inbounds i8, ptr %81, i64 %83
  store ptr %84, ptr %15, align 8
  %85 = load ptr, ptr %14, align 8
  %86 = call ptr @strchr(ptr noundef %85, i32 noundef 64) #8
  store ptr %86, ptr %16, align 8
  %87 = load ptr, ptr %16, align 8
  %88 = icmp eq ptr %87, null
  br i1 %88, label %97, label %89

89:                                               ; preds = %80
  %90 = load ptr, ptr %14, align 8
  %91 = load ptr, ptr %15, align 8
  %92 = icmp ne ptr %90, %91
  br i1 %92, label %93, label %98

93:                                               ; preds = %89
  %94 = load ptr, ptr %16, align 8
  %95 = load ptr, ptr %15, align 8
  %96 = icmp ugt ptr %94, %95
  br i1 %96, label %97, label %98

97:                                               ; preds = %93, %80
  br label %133

98:                                               ; preds = %93, %89
  %99 = load ptr, ptr %16, align 8
  %100 = call ptr @strrchr(ptr noundef %99, i32 noundef 46) #8
  store ptr %100, ptr %17, align 8
  %101 = load ptr, ptr %17, align 8
  %102 = icmp ne ptr %101, null
  br i1 %102, label %103, label %113

103:                                              ; preds = %98
  %104 = load ptr, ptr %17, align 8
  %105 = load ptr, ptr %17, align 8
  %106 = call i64 @strlen(ptr noundef %105) #8
  %107 = trunc i64 %106 to i32
  %108 = call ptr @in_tld_set(ptr noundef %104, i32 noundef %107)
  %109 = icmp ne ptr %108, null
  %110 = xor i1 %109, true
  %111 = xor i1 %110, true
  %112 = zext i1 %111 to i32
  br label %114

113:                                              ; preds = %98
  br label %114

114:                                              ; preds = %113, %103
  %115 = phi i32 [ %112, %103 ], [ 0, %113 ]
  store i32 %115, ptr %12, align 4
  %116 = load i32, ptr %12, align 4
  %117 = icmp slt i32 %116, 0
  br i1 %117, label %118, label %120

118:                                              ; preds = %114
  %119 = load i32, ptr %12, align 4
  store i32 %119, ptr %6, align 4
  br label %166

120:                                              ; preds = %114
  %121 = load i32, ptr %12, align 4
  %122 = icmp ne i32 %121, 0
  br i1 %122, label %123, label %127

123:                                              ; preds = %120
  %124 = load ptr, ptr %9, align 8
  %125 = load i32, ptr %124, align 4
  %126 = or i32 %125, 1
  store i32 %126, ptr %124, align 4
  br label %127

127:                                              ; preds = %123, %120
  %128 = load ptr, ptr %16, align 8
  %129 = getelementptr inbounds i8, ptr %128, i64 1
  store ptr %129, ptr %14, align 8
  br label %130

130:                                              ; preds = %127
  %131 = load ptr, ptr %16, align 8
  %132 = icmp ne ptr %131, null
  br i1 %132, label %80, label %133

133:                                              ; preds = %130, %97
  br label %145

134:                                              ; preds = %76
  %135 = load i32, ptr %13, align 4
  %136 = icmp ne i32 %135, 0
  br i1 %136, label %137, label %144

137:                                              ; preds = %134
  %138 = load i32, ptr %8, align 4
  %139 = icmp ne i32 %138, 0
  br i1 %139, label %140, label %144

140:                                              ; preds = %137
  %141 = load ptr, ptr %9, align 8
  %142 = load i32, ptr %141, align 4
  %143 = or i32 %142, 4
  store i32 %143, ptr %141, align 4
  br label %144

144:                                              ; preds = %140, %137, %134
  br label %145

145:                                              ; preds = %144, %133
  %146 = load ptr, ptr %15, align 8
  %147 = icmp ne ptr %146, null
  br i1 %147, label %161, label %148

148:                                              ; preds = %145
  %149 = load ptr, ptr %14, align 8
  %150 = load ptr, ptr %14, align 8
  %151 = call i64 @strcspn(ptr noundef %150, ptr noundef @.str.16) #8
  %152 = getelementptr inbounds i8, ptr %149, i64 %151
  store ptr %152, ptr %15, align 8
  %153 = load ptr, ptr %15, align 8
  %154 = icmp ne ptr %153, null
  br i1 %154, label %160, label %155

155:                                              ; preds = %148
  %156 = load ptr, ptr %14, align 8
  %157 = load ptr, ptr %14, align 8
  %158 = call i64 @strlen(ptr noundef %157) #8
  %159 = getelementptr inbounds i8, ptr %156, i64 %158
  store ptr %159, ptr %15, align 8
  br label %160

160:                                              ; preds = %155, %148
  br label %161

161:                                              ; preds = %160, %145
  %162 = load ptr, ptr %14, align 8
  %163 = load ptr, ptr %10, align 8
  store ptr %162, ptr %163, align 8
  %164 = load ptr, ptr %15, align 8
  %165 = load ptr, ptr %11, align 8
  store ptr %164, ptr %165, align 8
  store i32 0, ptr %6, align 4
  br label %166

166:                                              ; preds = %161, %118, %20
  %167 = load i32, ptr %6, align 4
  ret i32 %167
}