; Function Attrs: nounwind uwtable
define internal fastcc void @get_host(ptr noundef %0, i32 noundef %1, ptr nocapture noundef %2, ptr nocapture noundef writeonly %3, ptr nocapture noundef writeonly %4) unnamed_addr #0 {
  %.not = icmp eq ptr %0, null
  br i1 %.not, label %6, label %7

6:                                                ; preds = %5
  store ptr null, ptr %4, align 8
  store ptr null, ptr %3, align 8
  br label %89

7:                                                ; preds = %5
  %8 = tail call ptr @strstr(ptr noundef nonnull dereferenceable(1) %0, ptr noundef nonnull dereferenceable(1) @.str.330) #17
  %.not68 = icmp eq ptr %8, null
  br i1 %.not68, label %9, label %21

9:                                                ; preds = %7
  %10 = tail call i32 @strncmp(ptr noundef nonnull dereferenceable(1) %0, ptr noundef nonnull dereferenceable(8) @mailto, i64 noundef 7) #17
  %.not69 = icmp eq i32 %10, 0
  br i1 %.not69, label %23, label %11

11:                                               ; preds = %9
  %.not70 = icmp eq i32 %1, 0
  br i1 %.not70, label %12, label %.critedge

12:                                               ; preds = %11
  %13 = load i32, ptr %2, align 4
  %14 = and i32 %13, 4
  %.not71 = icmp eq i32 %14, 0
  br i1 %.not71, label %.preheader, label %15

15:                                               ; preds = %12
  %16 = tail call i64 @strlen(ptr noundef nonnull dereferenceable(1) %0) #17
  %17 = tail call i64 @strcspn(ptr noundef nonnull %0, ptr noundef nonnull @.str.331) #17
  %18 = getelementptr inbounds i8, ptr %0, i64 %17
  %19 = getelementptr inbounds i8, ptr %18, i64 1
  %20 = icmp eq i64 %17, %16
  %spec.select = select i1 %20, ptr %0, ptr %19
  br label %.preheader

.critedge:                                        ; preds = %11
  tail call void (ptr, ...) @cli_dbgmsg(ptr noundef nonnull @.str.332, ptr noundef nonnull %0) #18
  br label %.preheader

21:                                               ; preds = %7
  %22 = getelementptr inbounds i8, ptr %8, i64 3
  br label %.preheader

23:                                               ; preds = %9
  %24 = getelementptr inbounds i8, ptr %0, i64 7
  %.not105 = icmp eq i32 %1, 0
  br i1 %.not105, label %.preheader, label %.loopexit.thread

.preheader:                                       ; preds = %.critedge, %21, %15, %12, %23
  %.15991 = phi ptr [ %24, %23 ], [ %0, %12 ], [ %spec.select, %15 ], [ %0, %.critedge ], [ %22, %21 ]
  %25 = tail call i64 @strcspn(ptr noundef nonnull %.15991, ptr noundef nonnull @.str.16) #17
  %26 = getelementptr inbounds i8, ptr %.15991, i64 %25
  %27 = tail call ptr @strchr(ptr noundef nonnull dereferenceable(1) %.15991, i32 noundef 64) #17
  %28 = icmp eq ptr %27, null
  br i1 %28, label %.loopexit, label %.lr.ph.preheader

.lr.ph.preheader:                                 ; preds = %.preheader
  %.not725 = icmp ne i64 %25, 0
  %29 = icmp ugt ptr %27, %26
  %or.cond776 = select i1 %.not725, i1 %29, i1 false
  br i1 %or.cond776, label %.loopexit, label %.lr.ph7

.lr.ph:                                           ; preds = %.thread
  %.not72 = icmp ne i64 %80, 0
  %30 = icmp ugt ptr %82, %81
  %or.cond77 = select i1 %.not72, i1 %30, i1 false
  br i1 %or.cond77, label %.loopexit, label %.lr.ph7

.lr.ph7:                                          ; preds = %.lr.ph.preheader, %.lr.ph
  %31 = phi ptr [ %82, %.lr.ph ], [ %27, %.lr.ph.preheader ]
  %32 = tail call ptr @strrchr(ptr noundef nonnull dereferenceable(1) %31, i32 noundef 46) #17
  %.not73 = icmp eq ptr %32, null
  br i1 %.not73, label %.thread, label %33

33:                                               ; preds = %.lr.ph7
  %34 = tail call i64 @strlen(ptr noundef nonnull dereferenceable(1) %32) #17
  %35 = trunc i64 %34 to i32
  %36 = add i32 %35, -2
  %or.cond.i = icmp ult i32 %36, 17
  br i1 %or.cond.i, label %37, label %.thread

37:                                               ; preds = %33
  %switch.i.i = icmp ult i32 %36, 4
  br i1 %switch.i.i, label %tld_hash.exit.i, label %38

38:                                               ; preds = %37
  %39 = getelementptr inbounds i8, ptr %32, i64 5
  %40 = load i8, ptr %39, align 1
  %41 = zext i8 %40 to i64
  %42 = getelementptr inbounds [281 x i16], ptr @tld_hash.asso_values, i64 0, i64 %41
  %43 = load i16, ptr %42, align 2
  %44 = zext i16 %43 to i32
  %45 = add nuw nsw i32 %44, %35
  br label %tld_hash.exit.i

tld_hash.exit.i:                                  ; preds = %38, %37
  %.0.i.i = phi i32 [ %45, %38 ], [ %35, %37 ]
  %46 = getelementptr inbounds i8, ptr %32, i64 1
  %47 = load i8, ptr %46, align 1
  %48 = zext i8 %47 to i64
  %49 = getelementptr inbounds [281 x i16], ptr @tld_hash.asso_values, i64 0, i64 %48
  %50 = load i16, ptr %49, align 2
  %51 = zext i16 %50 to i32
  %52 = add nuw nsw i32 %.0.i.i, %51
  %53 = load i8, ptr %32, align 1
  %54 = zext i8 %53 to i64
  %55 = add nuw nsw i64 %54, 25
  %56 = getelementptr inbounds [281 x i16], ptr @tld_hash.asso_values, i64 0, i64 %55
  %57 = load i16, ptr %56, align 2
  %58 = zext i16 %57 to i32
  %59 = add nuw nsw i32 %52, %58
  %60 = icmp ult i32 %59, 988
  br i1 %60, label %61, label %.thread

61:                                               ; preds = %tld_hash.exit.i
  %62 = zext nneg i32 %59 to i64
  %63 = getelementptr inbounds [988 x i8], ptr @in_tld_set.lengthtable, i64 0, i64 %62
  %64 = load i8, ptr %63, align 1
  %65 = zext i8 %64 to i32
  %66 = icmp eq i32 %65, %35
  br i1 %66, label %67, label %.thread

67:                                               ; preds = %61
  %68 = getelementptr inbounds [988 x ptr], ptr @in_tld_set.wordlist, i64 0, i64 %62
  %69 = load ptr, ptr %68, align 8
  %70 = load i8, ptr %69, align 1
  %71 = icmp eq i8 %53, %70
  br i1 %71, label %72, label %.thread

72:                                               ; preds = %67
  %73 = getelementptr inbounds i8, ptr %69, i64 1
  %74 = add i64 %34, 4294967295
  %75 = and i64 %74, 4294967295
  %bcmp.i = tail call i32 @bcmp(ptr nonnull %46, ptr nonnull %73, i64 %75)
  %.not.i = icmp eq i32 %bcmp.i, 0
  br i1 %.not.i, label %76, label %.thread

76:                                               ; preds = %72
  %77 = load i32, ptr %2, align 4
  %78 = or i32 %77, 1
  store i32 %78, ptr %2, align 4
  br label %.thread

.thread:                                          ; preds = %72, %67, %61, %tld_hash.exit.i, %33, %.lr.ph7, %76
  %79 = getelementptr inbounds i8, ptr %31, i64 1
  %80 = tail call i64 @strcspn(ptr noundef nonnull %79, ptr noundef nonnull @.str.16) #17
  %81 = getelementptr inbounds i8, ptr %79, i64 %80
  %82 = tail call ptr @strchr(ptr noundef nonnull dereferenceable(1) %79, i32 noundef 64) #17
  %83 = icmp eq ptr %82, null
  br i1 %83, label %.loopexit.thread97, label %.lr.ph

.loopexit.thread:                                 ; preds = %23
  %84 = load i32, ptr %2, align 4
  %85 = or i32 %84, 4
  store i32 %85, ptr %2, align 4
  br label %86

.loopexit:                                        ; preds = %.lr.ph, %.lr.ph.preheader, %.preheader
  %.3 = phi ptr [ %.15991, %.preheader ], [ %.15991, %.lr.ph.preheader ], [ %79, %.lr.ph ]
  %.1 = phi ptr [ %26, %.preheader ], [ %26, %.lr.ph.preheader ], [ %81, %.lr.ph ]
  %.not75 = icmp eq ptr %.1, null
  br i1 %.not75, label %86, label %.loopexit.thread97

86:                                               ; preds = %.loopexit.thread, %.loopexit
  %.396 = phi ptr [ %24, %.loopexit.thread ], [ %.3, %.loopexit ]
  %87 = tail call i64 @strcspn(ptr noundef nonnull %.396, ptr noundef nonnull @.str.16) #17
  %88 = getelementptr inbounds i8, ptr %.396, i64 %87
  br label %.loopexit.thread97

.loopexit.thread97:                               ; preds = %.thread, %86, %.loopexit
  %.395 = phi ptr [ %.3, %.loopexit ], [ %.396, %86 ], [ %79, %.thread ]
  %.2 = phi ptr [ %.1, %.loopexit ], [ %88, %86 ], [ %81, %.thread ]
  store ptr %.395, ptr %3, align 8
  store ptr %.2, ptr %4, align 8
  br label %89

89:                                               ; preds = %.loopexit.thread97, %6
  ret void
}